target datalayout = "e-m:e-p270:32:32-p271:32:32-p272:64:64-i64:64-i128:128-f80:128-n8:16:32:64-S128"
target triple = "x86_64-unknown-linux-gnu"

%"class.llvh::cl::opt" = type { %"class.llvh::cl::Option.base", [7 x i8], %"class.llvh::cl::opt_storage", %"class.llvh::cl::parser" }
%"class.llvh::cl::Option.base" = type <{ ptr, i32, i16, [2 x i8], i32, i32, %"class.llvh::StringRef", %"class.llvh::StringRef", %"class.llvh::StringRef", ptr, %"class.llvh::SmallPtrSet", i8 }>
%"class.llvh::StringRef" = type { ptr, i64 }
%"class.llvh::SmallPtrSet" = type { %"class.llvh::SmallPtrSetImpl.base", [4 x ptr] }
%"class.llvh::SmallPtrSetImpl.base" = type { %"class.llvh::SmallPtrSetImplBase.base" }
%"class.llvh::SmallPtrSetImplBase.base" = type <{ ptr, ptr, i32, i32, i32 }>
%"class.llvh::cl::opt_storage" = type { i8, [7 x i8], %"struct.llvh::cl::OptionValue" }
%"struct.llvh::cl::OptionValue" = type { %"struct.llvh::cl::OptionValueBase.base", [6 x i8] }
%"struct.llvh::cl::OptionValueBase.base" = type { %"class.llvh::cl::OptionValueCopy.base" }
%"class.llvh::cl::OptionValueCopy.base" = type <{ %"struct.llvh::cl::GenericOptionValue", i8, i8 }>
%"struct.llvh::cl::GenericOptionValue" = type { ptr }
%"class.llvh::cl::parser" = type { %"class.llvh::cl::basic_parser" }
%"class.llvh::cl::basic_parser" = type { %"class.llvh::cl::basic_parser_impl" }
%"class.llvh::cl::basic_parser_impl" = type { ptr }
%"class.llvh::TimeRecord" = type { double, double, double, i64 }
%"class.std::chrono::time_point" = type { %"class.std::chrono::duration" }
%"class.std::chrono::duration" = type { i64 }
%"class.std::chrono::duration.13" = type { double }

@_ZN12_GLOBAL__N_110TrackSpaceE = internal global %"class.llvh::cl::opt" zeroinitializer, align 8

; Function Attrs: mustprogress nounwind uwtable
define linkonce_odr void @_ZNSt6chrono8durationIdSt5ratioILl1ELl1EEEC2IdvEERKT_(ptr noundef nonnull align 8 dereferenceable(8) %this, ptr noundef nonnull align 8 dereferenceable(8) %__rep) unnamed_addr #1 comdat align 2 {
entry:
  %this.addr = alloca ptr, align 8
  %__rep.addr = alloca ptr, align 8
  store ptr %this, ptr %this.addr, align 8
  store ptr %__rep, ptr %__rep.addr, align 8
  %this1 = load ptr, ptr %this.addr, align 8
  %__r = getelementptr inbounds %"class.std::chrono::duration.13", ptr %this1, i32 0, i32 0
  %0 = load ptr, ptr %__rep.addr, align 8
  %1 = load double, ptr %0, align 8
  store double %1, ptr %__r, align 8
  ret void
}

; Function Attrs: mustprogress nounwind uwtable
define linkonce_odr noundef i64 @_ZNKSt6chrono8durationIlSt5ratioILl1ELl1000000000EEE5countEv(ptr noundef nonnull align 8 dereferenceable(8) %this) #1 comdat align 2 {
entry:
  %this.addr = alloca ptr, align 8
  store ptr %this, ptr %this.addr, align 8
  %this1 = load ptr, ptr %this.addr, align 8
  %__r = getelementptr inbounds %"class.std::chrono::duration", ptr %this1, i32 0, i32 0
  %0 = load i64, ptr %__r, align 8
  ret i64 %0
}

; Function Attrs: mustprogress nounwind uwtable
define linkonce_odr double @_ZNSt6chrono20__duration_cast_implINS_8durationIdSt5ratioILl1ELl1EEEES2_ILl1ELl1000000000EEdLb1ELb0EE6__castIlS5_EES4_RKNS1_IT_T0_EE(ptr noundef nonnull align 8 dereferenceable(8) %__d) #1 comdat align 2 {
entry:
  %retval = alloca %"class.std::chrono::duration.13", align 8
  %__d.addr = alloca ptr, align 8
  %ref.tmp = alloca double, align 8
  store ptr %__d, ptr %__d.addr, align 8
  %0 = load ptr, ptr %__d.addr, align 8
  %call = call noundef i64 @_ZNKSt6chrono8durationIlSt5ratioILl1ELl1000000000EEE5countEv(ptr noundef nonnull align 8 dereferenceable(8) %0)
  %conv = sitofp i64 %call to double
  %div = fdiv double %conv, 1.000000e+09
  store double %div, ptr %ref.tmp, align 8
  call void @_ZNSt6chrono8durationIdSt5ratioILl1ELl1EEEC2IdvEERKT_(ptr noundef nonnull align 8 dereferenceable(8) %retval, ptr noundef nonnull align 8 dereferenceable(8) %ref.tmp)
  %coerce.dive = getelementptr inbounds %"class.std::chrono::duration.13", ptr %retval, i32 0, i32 0
  %1 = load double, ptr %coerce.dive, align 8
  ret double %1
}

; Function Attrs: mustprogress nounwind uwtable
define linkonce_odr hidden noundef zeroext i1 @_ZNK4llvh2cl11opt_storageIbLb0ELb0EE8getValueEv(ptr noundef nonnull align 8 dereferenceable(24) %this) #1 comdat align 2 {
entry:
  %this.addr = alloca ptr, align 8
  store ptr %this, ptr %this.addr, align 8
  %this1 = load ptr, ptr %this.addr, align 8
  %Value = getelementptr inbounds %"class.llvh::cl::opt_storage", ptr %this1, i32 0, i32 0
  %0 = load i8, ptr %Value, align 8
  %tobool = trunc i8 %0 to i1
  ret i1 %tobool
}

; Function Attrs: mustprogress nounwind uwtable
define linkonce_odr void @_ZNSt6chrono8durationIlSt5ratioILl1ELl1000000000EEEC2IlvEERKT_(ptr noundef nonnull align 8 dereferenceable(8) %this, ptr noundef nonnull align 8 dereferenceable(8) %__rep) unnamed_addr #1 comdat align 2 {
entry:
  %this.addr = alloca ptr, align 8
  %__rep.addr = alloca ptr, align 8
  store ptr %this, ptr %this.addr, align 8
  store ptr %__rep, ptr %__rep.addr, align 8
  %this1 = load ptr, ptr %this.addr, align 8
  %__r = getelementptr inbounds %"class.std::chrono::duration", ptr %this1, i32 0, i32 0
  %0 = load ptr, ptr %__rep.addr, align 8
  %1 = load i64, ptr %0, align 8
  store i64 %1, ptr %__r, align 8
  ret void
}

; Function Attrs: mustprogress nounwind uwtable
define linkonce_odr noundef i64 @_ZNSt6chrono15duration_valuesIlE4zeroEv() #1 comdat align 2 {
entry:
  ret i64 0
}

; Function Attrs: mustprogress nounwind uwtable
define linkonce_odr double @_ZNSt6chrono13duration_castINS_8durationIdSt5ratioILl1ELl1EEEElS2_ILl1ELl1000000000EEEENSt9enable_ifIXsr13__is_durationIT_EE5valueES7_E4typeERKNS1_IT0_T1_EE(ptr noundef nonnull align 8 dereferenceable(8) %__d) #1 comdat {
entry:
  %retval = alloca %"class.std::chrono::duration.13", align 8
  %__d.addr = alloca ptr, align 8
  store ptr %__d, ptr %__d.addr, align 8
  %0 = load ptr, ptr %__d.addr, align 8
  %call = call double @_ZNSt6chrono20__duration_cast_implINS_8durationIdSt5ratioILl1ELl1EEEES2_ILl1ELl1000000000EEdLb1ELb0EE6__castIlS5_EES4_RKNS1_IT_T0_EE(ptr noundef nonnull align 8 dereferenceable(8) %0)
  %coerce.dive = getelementptr inbounds %"class.std::chrono::duration.13", ptr %retval, i32 0, i32 0
  store double %call, ptr %coerce.dive, align 8
  %coerce.dive1 = getelementptr inbounds %"class.std::chrono::duration.13", ptr %retval, i32 0, i32 0
  %1 = load double, ptr %coerce.dive1, align 8
  ret double %1
}

; Function Attrs: mustprogress nounwind uwtable
define linkonce_odr hidden noundef zeroext i1 @_ZNK4llvh2cl11opt_storageIbLb0ELb0EEcvbEv(ptr noundef nonnull align 8 dereferenceable(24) %this) #1 comdat align 2 {
entry:
  %this.addr = alloca ptr, align 8
  store ptr %this, ptr %this.addr, align 8
  %this1 = load ptr, ptr %this.addr, align 8
  %call = call noundef zeroext i1 @_ZNK4llvh2cl11opt_storageIbLb0ELb0EE8getValueEv(ptr noundef nonnull align 8 dereferenceable(24) %this1)
  ret i1 %call
}

; Function Attrs: mustprogress nounwind uwtable
define linkonce_odr i64 @_ZNSt6chrono8durationIlSt5ratioILl1ELl1000000000EEE4zeroEv() #1 comdat align 2 {
entry:
  %retval = alloca %"class.std::chrono::duration", align 8
  %ref.tmp = alloca i64, align 8
  %call = call noundef i64 @_ZNSt6chrono15duration_valuesIlE4zeroEv() #2
  store i64 %call, ptr %ref.tmp, align 8
  call void @_ZNSt6chrono8durationIlSt5ratioILl1ELl1000000000EEEC2IlvEERKT_(ptr noundef nonnull align 8 dereferenceable(8) %retval, ptr noundef nonnull align 8 dereferenceable(8) %ref.tmp)
  %coerce.dive = getelementptr inbounds %"class.std::chrono::duration", ptr %retval, i32 0, i32 0
  %0 = load i64, ptr %coerce.dive, align 8
  ret i64 %0
}

; Function Attrs: mustprogress nounwind uwtable
define linkonce_odr noundef double @_ZNKSt6chrono8durationIdSt5ratioILl1ELl1EEE5countEv(ptr noundef nonnull align 8 dereferenceable(8) %this) #1 comdat align 2 {
entry:
  %this.addr = alloca ptr, align 8
  store ptr %this, ptr %this.addr, align 8
  %this1 = load ptr, ptr %this.addr, align 8
  %__r = getelementptr inbounds %"class.std::chrono::duration.13", ptr %this1, i32 0, i32 0
  %0 = load double, ptr %__r, align 8
  ret double %0
}

; Function Attrs: mustprogress nounwind uwtable
define linkonce_odr void @_ZNSt6chrono8durationIdSt5ratioILl1ELl1EEEC2IlS1_ILl1ELl1000000000EEvEERKNS0_IT_T0_EE(ptr noundef nonnull align 8 dereferenceable(8) %this, ptr noundef nonnull align 8 dereferenceable(8) %__d) unnamed_addr #1 comdat align 2 {
entry:
  %this.addr = alloca ptr, align 8
  %__d.addr = alloca ptr, align 8
  %ref.tmp = alloca %"class.std::chrono::duration.13", align 8
  store ptr %this, ptr %this.addr, align 8
  store ptr %__d, ptr %__d.addr, align 8
  %this1 = load ptr, ptr %this.addr, align 8
  %__r = getelementptr inbounds %"class.std::chrono::duration.13", ptr %this1, i32 0, i32 0
  %0 = load ptr, ptr %__d.addr, align 8
  %call = call double @_ZNSt6chrono13duration_castINS_8durationIdSt5ratioILl1ELl1EEEElS2_ILl1ELl1000000000EEEENSt9enable_ifIXsr13__is_durationIT_EE5valueES7_E4typeERKNS1_IT0_T1_EE(ptr noundef nonnull align 8 dereferenceable(8) %0)
  %coerce.dive = getelementptr inbounds %"class.std::chrono::duration.13", ptr %ref.tmp, i32 0, i32 0
  store double %call, ptr %coerce.dive, align 8
  %call2 = call noundef double @_ZNKSt6chrono8durationIdSt5ratioILl1ELl1EEE5countEv(ptr noundef nonnull align 8 dereferenceable(8) %ref.tmp)
  store double %call2, ptr %__r, align 8
  ret void
}

; Function Attrs: mustprogress nounwind uwtable
define linkonce_odr i64 @_ZNKSt6chrono10time_pointINS_3_V212system_clockENS_8durationIlSt5ratioILl1ELl1000000000EEEEE16time_since_epochEv(ptr noundef nonnull align 8 dereferenceable(8) %this) #1 comdat align 2 {
entry:
  %retval = alloca %"class.std::chrono::duration", align 8
  %this.addr = alloca ptr, align 8
  store ptr %this, ptr %this.addr, align 8
  %this1 = load ptr, ptr %this.addr, align 8
  %__d = getelementptr inbounds %"class.std::chrono::time_point", ptr %this1, i32 0, i32 0
  call void @llvm.memcpy.p0.p0.i64(ptr align 8 %retval, ptr align 8 %__d, i64 8, i1 false)
  %coerce.dive = getelementptr inbounds %"class.std::chrono::duration", ptr %retval, i32 0, i32 0
  %0 = load i64, ptr %coerce.dive, align 8
  ret i64 %0
}

; Function Attrs: mustprogress nounwind uwtable
define internal noundef i64 @_ZL11getMemUsagev() #1 {
entry:
  %retval = alloca i64, align 8
  %call = call noundef zeroext i1 @_ZNK4llvh2cl11opt_storageIbLb0ELb0EEcvbEv(ptr noundef nonnull align 8 dereferenceable(24) getelementptr inbounds (i8, ptr @_ZN12_GLOBAL__N_110TrackSpaceE, i64 152))
  br i1 %call, label %if.end, label %if.then

if.then:                                          ; preds = %entry
  store i64 0, ptr %retval, align 8
  br label %return

if.end:                                           ; preds = %entry
  %call1 = call noundef i64 @_ZN4llvh3sys7Process14GetMallocUsageEv()
  store i64 %call1, ptr %retval, align 8
  br label %return

return:                                           ; preds = %if.end, %if.then
  %0 = load i64, ptr %retval, align 8
  ret i64 %0
}

; Function Attrs: mustprogress nounwind uwtable
define linkonce_odr void @_ZNSt6chrono10time_pointINS_3_V212system_clockENS_8durationIlSt5ratioILl1ELl1000000000EEEEEC2Ev(ptr noundef nonnull align 8 dereferenceable(8) %this) unnamed_addr #1 comdat align 2 {
entry:
  %this.addr = alloca ptr, align 8
  store ptr %this, ptr %this.addr, align 8
  %this1 = load ptr, ptr %this.addr, align 8
  %__d = getelementptr inbounds %"class.std::chrono::time_point", ptr %this1, i32 0, i32 0
  %call = call i64 @_ZNSt6chrono8durationIlSt5ratioILl1ELl1000000000EEE4zeroEv() #2
  %coerce.dive = getelementptr inbounds %"class.std::chrono::duration", ptr %__d, i32 0, i32 0
  store i64 %call, ptr %coerce.dive, align 8
  ret void
}

; Function Attrs: mustprogress nounwind uwtable
define linkonce_odr hidden void @_ZN4llvh10TimeRecordC2Ev(ptr noundef nonnull align 8 dereferenceable(32) %this) unnamed_addr #1 comdat align 2 {
entry:
  %this.addr = alloca ptr, align 8
  store ptr %this, ptr %this.addr, align 8
  %this1 = load ptr, ptr %this.addr, align 8
  %WallTime = getelementptr inbounds %"class.llvh::TimeRecord", ptr %this1, i32 0, i32 0
  store double 0.000000e+00, ptr %WallTime, align 8
  %UserTime = getelementptr inbounds %"class.llvh::TimeRecord", ptr %this1, i32 0, i32 1
  store double 0.000000e+00, ptr %UserTime, align 8
  %SystemTime = getelementptr inbounds %"class.llvh::TimeRecord", ptr %this1, i32 0, i32 2
  store double 0.000000e+00, ptr %SystemTime, align 8
  %MemUsed = getelementptr inbounds %"class.llvh::TimeRecord", ptr %this1, i32 0, i32 3
  store i64 0, ptr %MemUsed, align 8
  ret void
}

; Function Attrs: mustprogress nounwind uwtable
define hidden void @_ZN4llvh10TimeRecord14getCurrentTimeEb(ptr noalias sret(%"class.llvh::TimeRecord") align 8 %agg.result, i1 noundef zeroext %Start) #1 align 2 {
entry:
  %Start.addr = alloca i8, align 1
  %now = alloca %"class.std::chrono::time_point", align 8
  %user = alloca %"class.std::chrono::duration", align 8
  %sys = alloca %"class.std::chrono::duration", align 8
  %ref.tmp = alloca %"class.std::chrono::duration.13", align 8
  %ref.tmp3 = alloca %"class.std::chrono::duration", align 8
  %ref.tmp6 = alloca %"class.std::chrono::duration.13", align 8
  %ref.tmp8 = alloca %"class.std::chrono::duration.13", align 8
  %frombool = zext i1 %Start to i8
  store i8 %frombool, ptr %Start.addr, align 1
  call void @_ZN4llvh10TimeRecordC2Ev(ptr noundef nonnull align 8 dereferenceable(32) %agg.result)
  call void @_ZNSt6chrono10time_pointINS_3_V212system_clockENS_8durationIlSt5ratioILl1ELl1000000000EEEEEC2Ev(ptr noundef nonnull align 8 dereferenceable(8) %now)
  %0 = load i8, ptr %Start.addr, align 1
  %tobool = trunc i8 %0 to i1
  br i1 %tobool, label %if.then, label %if.else

if.then:                                          ; preds = %entry
  %call = call noundef i64 @_ZL11getMemUsagev()
  %MemUsed = getelementptr inbounds %"class.llvh::TimeRecord", ptr %agg.result, i32 0, i32 3
  store i64 %call, ptr %MemUsed, align 8
  call void @_ZN4llvh3sys7Process12GetTimeUsageERNSt6chrono10time_pointINS2_3_V212system_clockENS2_8durationIlSt5ratioILl1ELl1000000000EEEEEERS9_SC_(ptr noundef nonnull align 8 dereferenceable(8) %now, ptr noundef nonnull align 8 dereferenceable(8) %user, ptr noundef nonnull align 8 dereferenceable(8) %sys)
  br label %if.end

if.else:                                          ; preds = %entry
  call void @_ZN4llvh3sys7Process12GetTimeUsageERNSt6chrono10time_pointINS2_3_V212system_clockENS2_8durationIlSt5ratioILl1ELl1000000000EEEEEERS9_SC_(ptr noundef nonnull align 8 dereferenceable(8) %now, ptr noundef nonnull align 8 dereferenceable(8) %user, ptr noundef nonnull align 8 dereferenceable(8) %sys)
  %call1 = call noundef i64 @_ZL11getMemUsagev()
  %MemUsed2 = getelementptr inbounds %"class.llvh::TimeRecord", ptr %agg.result, i32 0, i32 3
  store i64 %call1, ptr %MemUsed2, align 8
  br label %if.end

if.end:                                           ; preds = %if.else, %if.then
  %call4 = call i64 @_ZNKSt6chrono10time_pointINS_3_V212system_clockENS_8durationIlSt5ratioILl1ELl1000000000EEEEE16time_since_epochEv(ptr noundef nonnull align 8 dereferenceable(8) %now)
  %coerce.dive = getelementptr inbounds %"class.std::chrono::duration", ptr %ref.tmp3, i32 0, i32 0
  store i64 %call4, ptr %coerce.dive, align 8
  call void @_ZNSt6chrono8durationIdSt5ratioILl1ELl1EEEC2IlS1_ILl1ELl1000000000EEvEERKNS0_IT_T0_EE(ptr noundef nonnull align 8 dereferenceable(8) %ref.tmp, ptr noundef nonnull align 8 dereferenceable(8) %ref.tmp3)
  %call5 = call noundef double @_ZNKSt6chrono8durationIdSt5ratioILl1ELl1EEE5countEv(ptr noundef nonnull align 8 dereferenceable(8) %ref.tmp)
  %WallTime = getelementptr inbounds %"class.llvh::TimeRecord", ptr %agg.result, i32 0, i32 0
  store double %call5, ptr %WallTime, align 8
  call void @_ZNSt6chrono8durationIdSt5ratioILl1ELl1EEEC2IlS1_ILl1ELl1000000000EEvEERKNS0_IT_T0_EE(ptr noundef nonnull align 8 dereferenceable(8) %ref.tmp6, ptr noundef nonnull align 8 dereferenceable(8) %user)
  %call7 = call noundef double @_ZNKSt6chrono8durationIdSt5ratioILl1ELl1EEE5countEv(ptr noundef nonnull align 8 dereferenceable(8) %ref.tmp6)
  %UserTime = getelementptr inbounds %"class.llvh::TimeRecord", ptr %agg.result, i32 0, i32 1
  store double %call7, ptr %UserTime, align 8
  call void @_ZNSt6chrono8durationIdSt5ratioILl1ELl1EEEC2IlS1_ILl1ELl1000000000EEvEERKNS0_IT_T0_EE(ptr noundef nonnull align 8 dereferenceable(8) %ref.tmp8, ptr noundef nonnull align 8 dereferenceable(8) %sys)
  %call9 = call noundef double @_ZNKSt6chrono8durationIdSt5ratioILl1ELl1EEE5countEv(ptr noundef nonnull align 8 dereferenceable(8) %ref.tmp8)
  %SystemTime = getelementptr inbounds %"class.llvh::TimeRecord", ptr %agg.result, i32 0, i32 2
  store double %call9, ptr %SystemTime, align 8
  ret void
}