; Function Attrs: mustprogress nounwind uwtable
define hidden void @_ZN4llvh10TimeRecord14getCurrentTimeEb(ptr noalias nocapture writeonly sret(%"class.llvh::TimeRecord") align 8 %agg.result, i1 noundef zeroext %Start) local_unnamed_addr #0 align 2 {
entry:
  %now = alloca %"class.std::chrono::time_point", align 8
  %user = alloca %"class.std::chrono::duration", align 8
  %sys = alloca %"class.std::chrono::duration", align 8
  %0 = getelementptr inbounds i8, ptr %agg.result, i64 24
  store i64 0, ptr %0, align 8
  store i64 0, ptr %now, align 8
  br i1 %Start, label %if.then, label %if.else

if.then:                                          ; preds = %entry
  %1 = load i8, ptr getelementptr inbounds (%"class.llvh::cl::opt", ptr @_ZN12_GLOBAL__N_110TrackSpaceE, i64 0, i32 2, i32 0), align 8
  %2 = and i8 %1, 1
  %tobool.i.i.not.i = icmp eq i8 %2, 0
  br i1 %tobool.i.i.not.i, label %_ZL11getMemUsagev.exit, label %if.end.i

if.end.i:                                         ; preds = %if.then
  %call1.i = tail call noundef i64 @_ZN4llvh3sys7Process14GetMallocUsageEv() #21
  br label %_ZL11getMemUsagev.exit

_ZL11getMemUsagev.exit:                           ; preds = %if.then, %if.end.i
  %retval.0.i = phi i64 [ %call1.i, %if.end.i ], [ 0, %if.then ]
  %MemUsed = getelementptr inbounds i8, ptr %agg.result, i64 24
  store i64 %retval.0.i, ptr %MemUsed, align 8
  call void @_ZN4llvh3sys7Process12GetTimeUsageERNSt6chrono10time_pointINS2_3_V212system_clockENS2_8durationIlSt5ratioILl1ELl1000000000EEEEEERS9_SC_(ptr noundef nonnull align 8 dereferenceable(8) %now, ptr noundef nonnull align 8 dereferenceable(8) %user, ptr noundef nonnull align 8 dereferenceable(8) %sys) #21
  br label %if.end

if.else:                                          ; preds = %entry
  call void @_ZN4llvh3sys7Process12GetTimeUsageERNSt6chrono10time_pointINS2_3_V212system_clockENS2_8durationIlSt5ratioILl1ELl1000000000EEEEEERS9_SC_(ptr noundef nonnull align 8 dereferenceable(8) %now, ptr noundef nonnull align 8 dereferenceable(8) %user, ptr noundef nonnull align 8 dereferenceable(8) %sys) #21
  %3 = load i8, ptr getelementptr inbounds (%"class.llvh::cl::opt", ptr @_ZN12_GLOBAL__N_110TrackSpaceE, i64 0, i32 2, i32 0), align 8
  %4 = and i8 %3, 1
  %tobool.i.i.not.i1 = icmp eq i8 %4, 0
  br i1 %tobool.i.i.not.i1, label %_ZL11getMemUsagev.exit5, label %if.end.i2

if.end.i2:                                        ; preds = %if.else
  %call1.i3 = call noundef i64 @_ZN4llvh3sys7Process14GetMallocUsageEv() #21
  br label %_ZL11getMemUsagev.exit5

_ZL11getMemUsagev.exit5:                          ; preds = %if.else, %if.end.i2
  %retval.0.i4 = phi i64 [ %call1.i3, %if.end.i2 ], [ 0, %if.else ]
  %MemUsed2 = getelementptr inbounds i8, ptr %agg.result, i64 24
  store i64 %retval.0.i4, ptr %MemUsed2, align 8
  br label %if.end

if.end:                                           ; preds = %_ZL11getMemUsagev.exit5, %_ZL11getMemUsagev.exit
  %retval.sroa.0.0.copyload.i = load i64, ptr %now, align 8
  %5 = load i64, ptr %user, align 8
  %6 = insertelement <2 x i64> poison, i64 %retval.sroa.0.0.copyload.i, i64 0
  %7 = insertelement <2 x i64> %6, i64 %5, i64 1
  %8 = sitofp <2 x i64> %7 to <2 x double>
  %9 = fdiv <2 x double> %8, <double 1.000000e+09, double 1.000000e+09>
  store <2 x double> %9, ptr %agg.result, align 8
  %10 = load i64, ptr %sys, align 8
  %conv.i.i.i8 = sitofp i64 %10 to double
  %div.i.i.i9 = fdiv double %conv.i.i.i8, 1.000000e+09
  %SystemTime = getelementptr inbounds i8, ptr %agg.result, i64 16
  store double %div.i.i.i9, ptr %SystemTime, align 8
  ret void
}